target datalayout = "e-m:e-p270:32:32-p271:32:32-p272:64:64-i64:64-i128:128-f80:128-n8:16:32:64-S128"
target triple = "x86_64-pc-linux-gnu"

%struct.Vec_Int_t_ = type { i32, i32, ptr }

@.str.10 = private unnamed_addr constant [40 x i8] c"Input identification did not work out.\0A\00", align 1

; Function Attrs: inlinehint nounwind uwtable
define internal void @Vec_IntFree(ptr noundef %0) #2 {
  %2 = alloca ptr, align 8
  store ptr %0, ptr %2, align 8, !tbaa !10
  %3 = load ptr, ptr %2, align 8, !tbaa !10
  %4 = getelementptr inbounds nuw %struct.Vec_Int_t_, ptr %3, i32 0, i32 2
  %5 = load ptr, ptr %4, align 8, !tbaa !29
  %6 = icmp ne ptr %5, null
  br i1 %6, label %7, label %13

7:                                                ; preds = %1
  %8 = load ptr, ptr %2, align 8, !tbaa !10
  %9 = getelementptr inbounds nuw %struct.Vec_Int_t_, ptr %8, i32 0, i32 2
  %10 = load ptr, ptr %9, align 8, !tbaa !29
  call void @free(ptr noundef %10) #11
  %11 = load ptr, ptr %2, align 8, !tbaa !10
  %12 = getelementptr inbounds nuw %struct.Vec_Int_t_, ptr %11, i32 0, i32 2
  store ptr null, ptr %12, align 8, !tbaa !29
  br label %14

13:                                               ; preds = %1
  br label %14

14:                                               ; preds = %13, %7
  %15 = load ptr, ptr %2, align 8, !tbaa !10
  %16 = icmp ne ptr %15, null
  br i1 %16, label %17, label %19

17:                                               ; preds = %14
  %18 = load ptr, ptr %2, align 8, !tbaa !10
  call void @free(ptr noundef %18) #11
  store ptr null, ptr %2, align 8, !tbaa !10
  br label %20

19:                                               ; preds = %14
  br label %20

20:                                               ; preds = %19, %17
  ret void
}

; Function Attrs: inlinehint nounwind uwtable
define internal i32 @Vec_IntSize(ptr noundef %0) #2 {
  %2 = alloca ptr, align 8
  store ptr %0, ptr %2, align 8, !tbaa !10
  %3 = load ptr, ptr %2, align 8, !tbaa !10
  %4 = getelementptr inbounds nuw %struct.Vec_Int_t_, ptr %3, i32 0, i32 1
  %5 = load i32, ptr %4, align 4, !tbaa !27
  ret i32 %5
}

; Function Attrs: nounwind uwtable
define void @Sbc_ManDetectMultTest(ptr noundef %0, i32 noundef %1) #0 {
  %3 = alloca ptr, align 8
  %4 = alloca i32, align 4
  %5 = alloca ptr, align 8
  %6 = alloca ptr, align 8
  %7 = alloca ptr, align 8
  %8 = alloca i32, align 4
  %9 = alloca i32, align 4
  store ptr %0, ptr %3, align 8, !tbaa !3
  store i32 %1, ptr %4, align 4, !tbaa !12
  call void @llvm.lifetime.start.p0(i64 8, ptr %5) #11
  %10 = load ptr, ptr %3, align 8, !tbaa !3
  %11 = call ptr @Wlc_NtkBitBlast(ptr noundef %10, ptr noundef null)
  store ptr %11, ptr %5, align 8, !tbaa !32
  call void @llvm.lifetime.start.p0(i64 8, ptr %6) #11
  call void @llvm.lifetime.start.p0(i64 8, ptr %7) #11
  call void @llvm.lifetime.start.p0(i64 4, ptr %8) #11
  store i32 -1, ptr %8, align 4, !tbaa !12
  %12 = load ptr, ptr %5, align 8, !tbaa !32
  %13 = call ptr @Sdb_StoComputeCutsDetect(ptr noundef %12)
  store ptr %13, ptr %6, align 8, !tbaa !10
  %14 = load ptr, ptr %6, align 8, !tbaa !10
  %15 = icmp eq ptr %14, null
  br i1 %15, label %25, label %16

16:                                               ; preds = %2
  %17 = load ptr, ptr %6, align 8, !tbaa !10
  %18 = call i32 @Vec_IntSize(ptr noundef %17)
  %19 = icmp eq i32 %18, 0
  br i1 %19, label %25, label %20

20:                                               ; preds = %16
  %21 = load ptr, ptr %6, align 8, !tbaa !10
  %22 = call i32 @Vec_IntSize(ptr noundef %21)
  %23 = srem i32 %22, 2
  %24 = icmp ne i32 %23, 0
  br i1 %24, label %25, label %27

25:                                               ; preds = %20, %16, %2
  %26 = call i32 (ptr, ...) @printf(ptr noundef @.str.10)
  store i32 1, ptr %9, align 4
  br label %40

27:                                               ; preds = %20
  %28 = load ptr, ptr %5, align 8, !tbaa !32
  %29 = load ptr, ptr %6, align 8, !tbaa !10
  %30 = call ptr @Sbc_ManDetectMult(ptr noundef %28, ptr noundef %29)
  store ptr %30, ptr %7, align 8, !tbaa !10
  %31 = load ptr, ptr %3, align 8, !tbaa !3
  %32 = load ptr, ptr %5, align 8, !tbaa !32
  %33 = load ptr, ptr %7, align 8, !tbaa !10
  %34 = load ptr, ptr %6, align 8, !tbaa !10
  %35 = call i32 @Vec_IntSize(ptr noundef %34)
  %36 = call i32 @Sbc_ManWlcNodes(ptr noundef %31, ptr noundef %32, ptr noundef %33, i32 noundef %35)
  store i32 %36, ptr %8, align 4, !tbaa !12
  %37 = load ptr, ptr %7, align 8, !tbaa !10
  call void @Vec_IntFree(ptr noundef %37)
  %38 = load ptr, ptr %6, align 8, !tbaa !10
  call void @Vec_IntFree(ptr noundef %38)
  %39 = load ptr, ptr %5, align 8, !tbaa !32
  call void @Gia_ManStop(ptr noundef %39)
  store i32 0, ptr %9, align 4
  br label %40

40:                                               ; preds = %27, %25
  call void @llvm.lifetime.end.p0(i64 4, ptr %8) #11
  call void @llvm.lifetime.end.p0(i64 8, ptr %7) #11
  call void @llvm.lifetime.end.p0(i64 8, ptr %6) #11
  call void @llvm.lifetime.end.p0(i64 8, ptr %5) #11
  %41 = load i32, ptr %9, align 4
  switch i32 %41, label %43 [
    i32 0, label %42
    i32 1, label %42
  ]

42:                                               ; preds = %40, %40
  ret void

43:                                               ; preds = %40
  unreachable
}