; Function Attrs: nounwind uwtable
define void @Sbc_ManDetectMultTest(ptr noundef %0, i32 noundef %1) local_unnamed_addr #0 {
  %3 = tail call ptr @Wlc_NtkBitBlast(ptr noundef %0, ptr noundef null) #18
  %4 = tail call ptr @Sdb_StoComputeCutsDetect(ptr noundef %3) #18
  %5 = icmp eq ptr %4, null
  br i1 %5, label %10, label %6

6:                                                ; preds = %2
  %7 = getelementptr i8, ptr %4, i64 4
  %.val15 = load i32, ptr %7, align 4, !tbaa !24
  %8 = icmp ne i32 %.val15, 0
  %9 = and i32 %.val15, 1
  %.not = icmp eq i32 %9, 0
  %or.cond = and i1 %8, %.not
  br i1 %or.cond, label %11, label %10

10:                                               ; preds = %6, %2
  %puts = tail call i32 @puts(ptr nonnull dereferenceable(1) @str.2)
  br label %20

11:                                               ; preds = %6
  %12 = tail call ptr @Sbc_ManDetectMult(ptr noundef %3, ptr noundef nonnull %4)
  %.val = load i32, ptr %7, align 4, !tbaa !24
  %13 = tail call i32 @Sbc_ManWlcNodes(ptr noundef %0, ptr poison, ptr noundef %12, i32 noundef %.val)
  %14 = getelementptr inbounds nuw i8, ptr %12, i64 8
  %15 = load ptr, ptr %14, align 8, !tbaa !26
  %.not.i = icmp eq ptr %15, null
  br i1 %.not.i, label %Vec_IntFree.exit, label %16

16:                                               ; preds = %11
  tail call void @free(ptr noundef nonnull %15) #18
  br label %Vec_IntFree.exit

Vec_IntFree.exit:                                 ; preds = %11, %16
  tail call void @free(ptr noundef nonnull %12) #18
  %17 = getelementptr inbounds nuw i8, ptr %4, i64 8
  %18 = load ptr, ptr %17, align 8, !tbaa !26
  %.not.i16 = icmp eq ptr %18, null
  br i1 %.not.i16, label %Vec_IntFree.exit17, label %19

19:                                               ; preds = %Vec_IntFree.exit
  tail call void @free(ptr noundef nonnull %18) #18
  br label %Vec_IntFree.exit17

Vec_IntFree.exit17:                               ; preds = %Vec_IntFree.exit, %19
  tail call void @free(ptr noundef nonnull %4) #18
  tail call void @Gia_ManStop(ptr noundef %3) #18
  br label %20

20:                                               ; preds = %Vec_IntFree.exit17, %10
  ret void
}